target datalayout = "e-m:e-p270:32:32-p271:32:32-p272:64:64-i64:64-i128:128-f80:128-n8:16:32:64-S128"
target triple = "x86_64-pc-linux-gnu"

%struct.CodedBitstreamUnit = type { i32, ptr, i64, i64, ptr, ptr, ptr }

@.str.1 = private unnamed_addr constant [30 x i8] c"Assertion %s failed at %s:%d\0A\00", align 1
@.str.3 = private unnamed_addr constant [17 x i8] c"libavcodec/cbs.c\00", align 1
@.str.25 = private unnamed_addr constant [14 x i8] c"unit->content\00", align 1

; Function Attrs: nounwind uwtable
define i32 @ff_cbs_make_unit_refcounted(ptr noundef %0, ptr noundef %1) #3 {
  %3 = alloca i32, align 4
  %4 = alloca ptr, align 8
  %5 = alloca ptr, align 8
  store ptr %0, ptr %4, align 8, !tbaa !22
  store ptr %1, ptr %5, align 8, !tbaa !50
  br label %6

6:                                                ; preds = %2
  %7 = load ptr, ptr %5, align 8, !tbaa !50
  %8 = getelementptr inbounds nuw %struct.CodedBitstreamUnit, ptr %7, i32 0, i32 5
  %9 = load ptr, ptr %8, align 8, !tbaa !51
  %10 = icmp ne ptr %9, null
  br i1 %10, label %12, label %11

11:                                               ; preds = %6
  call void (ptr, i32, ptr, ...) @av_log(ptr noundef null, i32 noundef 0, ptr noundef @.str.1, ptr noundef @.str.25, ptr noundef @.str.3, i32 noundef 1053)
  call void @abort() #14
  unreachable

12:                                               ; preds = %6
  br label %13

13:                                               ; preds = %12
  %14 = load ptr, ptr %5, align 8, !tbaa !50
  %15 = getelementptr inbounds nuw %struct.CodedBitstreamUnit, ptr %14, i32 0, i32 6
  %16 = load ptr, ptr %15, align 8, !tbaa !123
  %17 = icmp ne ptr %16, null
  br i1 %17, label %18, label %19

18:                                               ; preds = %13
  store i32 0, ptr %3, align 4
  br label %23

19:                                               ; preds = %13
  %20 = load ptr, ptr %4, align 8, !tbaa !22
  %21 = load ptr, ptr %5, align 8, !tbaa !50
  %22 = call i32 @cbs_clone_unit_content(ptr noundef %20, ptr noundef %21)
  store i32 %22, ptr %3, align 4
  br label %23

23:                                               ; preds = %19, %18
  %24 = load i32, ptr %3, align 4
  ret i32 %24
}