; Function Attrs: nounwind uwtable
define range(i32 -2147483648, 1) i32 @ff_cbs_make_unit_refcounted(ptr noundef readonly captures(none) %0, ptr noundef %1) local_unnamed_addr #3 {
  %3 = getelementptr inbounds nuw i8, ptr %1, i64 40
  %4 = load ptr, ptr %3, align 8, !tbaa !39
  %.not = icmp eq ptr %4, null
  br i1 %.not, label %5, label %6

5:                                                ; preds = %2
  tail call void (ptr, i32, ptr, ...) @av_log(ptr noundef null, i32 noundef 0, ptr noundef nonnull @.str.1, ptr noundef nonnull @.str.25, ptr noundef nonnull @.str.3, i32 noundef 1053) #10
  tail call void @abort() #11
  unreachable

6:                                                ; preds = %2
  %7 = getelementptr inbounds nuw i8, ptr %1, i64 48
  %8 = load ptr, ptr %7, align 8, !tbaa !109
  %.not4 = icmp eq ptr %8, null
  br i1 %.not4, label %9, label %13

9:                                                ; preds = %6
  %10 = getelementptr i8, ptr %0, i64 8
  %.val = load ptr, ptr %10, align 8, !tbaa !23
  %11 = getelementptr i8, ptr %.val, i64 24
  %.val.val = load ptr, ptr %11, align 8, !tbaa !111
  %12 = tail call fastcc i32 @cbs_clone_unit_content(ptr %.val.val, ptr noundef nonnull %1)
  br label %13

13:                                               ; preds = %6, %9
  %.0 = phi i32 [ %12, %9 ], [ 0, %6 ]
  ret i32 %.0
}